target datalayout = "e-m:e-p270:32:32-p271:32:32-p272:64:64-i64:64-i128:128-f80:128-n8:16:32:64-S128"
target triple = "x86_64-pc-linux-gnu"

@.str.256 = private unnamed_addr constant [19 x i8] c"Link Discriminator\00", align 1
@.str.671 = private unnamed_addr constant [10 x i8] c"Link Type\00", align 1
@.str.694 = private unnamed_addr constant [7 x i8] c"Reason\00", align 1
@proto_register_bap.ett = internal global [9 x ptr] [ptr @ett_bap, ptr @ett_bap_options, ptr @ett_bap_link_type_opt, ptr @ett_bap_phone_delta_opt, ptr @ett_bap_phone_delta_subopt, ptr @ett_bap_call_status_opt, ptr @ett_bap_no_phone_opt, ptr @ett_bap_reason_opt, ptr @ett_bap_link_disc_opt], align 16
@.str.708 = private unnamed_addr constant [34 x i8] c"PPP Bandwidth Allocation Protocol\00", align 1
@.str.709 = private unnamed_addr constant [8 x i8] c"PPP BAP\00", align 1
@.str.710 = private unnamed_addr constant [4 x i8] c"bap\00", align 1
@proto_bap = internal global i32 0, align 4
@bap_handle = internal global ptr null, align 8
@.str.711 = private unnamed_addr constant [11 x i8] c"bap.option\00", align 1
@.str.712 = private unnamed_addr constant [16 x i8] c"PPP BAP Options\00", align 1
@bap_option_table = internal global ptr null, align 8
@.str.713 = private unnamed_addr constant [18 x i8] c"bap.opt.link_type\00", align 1
@proto_bap_option_link_type = internal global i32 0, align 4
@.str.714 = private unnamed_addr constant [12 x i8] c"Phone Delta\00", align 1
@.str.715 = private unnamed_addr constant [20 x i8] c"bap.opt.phone_delta\00", align 1
@proto_bap_option_phone_delta = internal global i32 0, align 4
@.str.716 = private unnamed_addr constant [23 x i8] c"No Phone Number Needed\00", align 1
@.str.717 = private unnamed_addr constant [17 x i8] c"bap.opt.no_phone\00", align 1
@proto_bap_option_no_phone = internal global i32 0, align 4
@.str.718 = private unnamed_addr constant [15 x i8] c"bap.opt.reason\00", align 1
@proto_bap_option_reason = internal global i32 0, align 4
@.str.719 = private unnamed_addr constant [18 x i8] c"bap.opt.link_disc\00", align 1
@proto_bap_option_link_disc = internal global i32 0, align 4
@.str.720 = private unnamed_addr constant [12 x i8] c"Call Status\00", align 1
@.str.721 = private unnamed_addr constant [20 x i8] c"bap.opt.call_status\00", align 1
@proto_bap_option_call_status = internal global i32 0, align 4

; Function Attrs: null_pointer_is_valid sspstrong uwtable
define hidden void @proto_register_bap() #1 {
  %1 = alloca ptr, align 8
  call void @llvm.lifetime.start.p0(i64 8, ptr %1) #6
  %2 = call i32 @proto_register_protocol(ptr noundef @.str.708, ptr noundef @.str.709, ptr noundef @.str.710)
  store i32 %2, ptr @proto_bap, align 4
  %3 = load i32, ptr @proto_bap, align 4
  %4 = call ptr @register_dissector(ptr noundef @.str.710, ptr noundef @dissect_bap, i32 noundef %3)
  store ptr %4, ptr @bap_handle, align 8
  %5 = load i32, ptr @proto_bap, align 4
  call void @proto_register_field_array(i32 noundef %5, ptr noundef @proto_register_bap.hf, i32 noundef 16)
  call void @proto_register_subtree_array(ptr noundef @proto_register_bap.ett, i32 noundef 9)
  %6 = load i32, ptr @proto_bap, align 4
  %7 = call ptr @expert_register_protocol(i32 noundef %6)
  store ptr %7, ptr %1, align 8
  %8 = load ptr, ptr %1, align 8
  call void @expert_register_field_array(ptr noundef %8, ptr noundef @proto_register_bap.ei, i32 noundef 1)
  %9 = load i32, ptr @proto_bap, align 4
  %10 = call ptr @register_dissector_table(ptr noundef @.str.711, ptr noundef @.str.712, i32 noundef %9, i32 noundef 4, i32 noundef 1)
  store ptr %10, ptr @bap_option_table, align 8
  %11 = load i32, ptr @proto_bap, align 4
  %12 = call i32 @proto_register_protocol_in_name_only(ptr noundef @.str.671, ptr noundef @.str.671, ptr noundef @.str.713, i32 noundef %11, i32 noundef 30)
  store i32 %12, ptr @proto_bap_option_link_type, align 4
  %13 = load i32, ptr @proto_bap, align 4
  %14 = call i32 @proto_register_protocol_in_name_only(ptr noundef @.str.714, ptr noundef @.str.714, ptr noundef @.str.715, i32 noundef %13, i32 noundef 30)
  store i32 %14, ptr @proto_bap_option_phone_delta, align 4
  %15 = load i32, ptr @proto_bap, align 4
  %16 = call i32 @proto_register_protocol_in_name_only(ptr noundef @.str.716, ptr noundef @.str.716, ptr noundef @.str.717, i32 noundef %15, i32 noundef 30)
  store i32 %16, ptr @proto_bap_option_no_phone, align 4
  %17 = load i32, ptr @proto_bap, align 4
  %18 = call i32 @proto_register_protocol_in_name_only(ptr noundef @.str.694, ptr noundef @.str.694, ptr noundef @.str.718, i32 noundef %17, i32 noundef 30)
  store i32 %18, ptr @proto_bap_option_reason, align 4
  %19 = load i32, ptr @proto_bap, align 4
  %20 = call i32 @proto_register_protocol_in_name_only(ptr noundef @.str.256, ptr noundef @.str.256, ptr noundef @.str.719, i32 noundef %19, i32 noundef 30)
  store i32 %20, ptr @proto_bap_option_link_disc, align 4
  %21 = load i32, ptr @proto_bap, align 4
  %22 = call i32 @proto_register_protocol_in_name_only(ptr noundef @.str.720, ptr noundef @.str.720, ptr noundef @.str.721, i32 noundef %21, i32 noundef 30)
  store i32 %22, ptr @proto_bap_option_call_status, align 4
  call void @llvm.lifetime.end.p0(i64 8, ptr %1) #6
  ret void
}