; Function Attrs: null_pointer_is_valid sspstrong uwtable
define hidden void @proto_register_bap() local_unnamed_addr #1 {
  %1 = tail call i32 @proto_register_protocol(ptr noundef nonnull @.str.708, ptr noundef nonnull @.str.709, ptr noundef nonnull @.str.710)
  store i32 %1, ptr @proto_bap, align 4
  %2 = tail call ptr @register_dissector(ptr noundef nonnull @.str.710, ptr noundef nonnull @dissect_bap, i32 noundef %1)
  store ptr %2, ptr @bap_handle, align 8
  %3 = load i32, ptr @proto_bap, align 4
  tail call void @proto_register_field_array(i32 noundef %3, ptr noundef nonnull @proto_register_bap.hf, i32 noundef 16)
  tail call void @proto_register_subtree_array(ptr noundef nonnull @proto_register_bap.ett, i32 noundef 9)
  %4 = load i32, ptr @proto_bap, align 4
  %5 = tail call ptr @expert_register_protocol(i32 noundef %4)
  tail call void @expert_register_field_array(ptr noundef %5, ptr noundef nonnull @proto_register_bap.ei, i32 noundef 1)
  %6 = load i32, ptr @proto_bap, align 4
  %7 = tail call ptr @register_dissector_table(ptr noundef nonnull @.str.711, ptr noundef nonnull @.str.712, i32 noundef %6, i32 noundef 4, i32 noundef 1)
  store ptr %7, ptr @bap_option_table, align 8
  %8 = load i32, ptr @proto_bap, align 4
  %9 = tail call i32 @proto_register_protocol_in_name_only(ptr noundef nonnull @.str.671, ptr noundef nonnull @.str.671, ptr noundef nonnull @.str.713, i32 noundef %8, i32 noundef 30)
  store i32 %9, ptr @proto_bap_option_link_type, align 4
  %10 = load i32, ptr @proto_bap, align 4
  %11 = tail call i32 @proto_register_protocol_in_name_only(ptr noundef nonnull @.str.714, ptr noundef nonnull @.str.714, ptr noundef nonnull @.str.715, i32 noundef %10, i32 noundef 30)
  store i32 %11, ptr @proto_bap_option_phone_delta, align 4
  %12 = load i32, ptr @proto_bap, align 4
  %13 = tail call i32 @proto_register_protocol_in_name_only(ptr noundef nonnull @.str.716, ptr noundef nonnull @.str.716, ptr noundef nonnull @.str.717, i32 noundef %12, i32 noundef 30)
  store i32 %13, ptr @proto_bap_option_no_phone, align 4
  %14 = load i32, ptr @proto_bap, align 4
  %15 = tail call i32 @proto_register_protocol_in_name_only(ptr noundef nonnull @.str.694, ptr noundef nonnull @.str.694, ptr noundef nonnull @.str.718, i32 noundef %14, i32 noundef 30)
  store i32 %15, ptr @proto_bap_option_reason, align 4
  %16 = load i32, ptr @proto_bap, align 4
  %17 = tail call i32 @proto_register_protocol_in_name_only(ptr noundef nonnull @.str.256, ptr noundef nonnull @.str.256, ptr noundef nonnull @.str.719, i32 noundef %16, i32 noundef 30)
  store i32 %17, ptr @proto_bap_option_link_disc, align 4
  %18 = load i32, ptr @proto_bap, align 4
  %19 = tail call i32 @proto_register_protocol_in_name_only(ptr noundef nonnull @.str.720, ptr noundef nonnull @.str.720, ptr noundef nonnull @.str.721, i32 noundef %18, i32 noundef 30)
  store i32 %19, ptr @proto_bap_option_call_status, align 4
  ret void
}